target datalayout = "e-m:e-p270:32:32-p271:32:32-p272:64:64-i64:64-i128:128-f80:128-n8:16:32:64-S128"
target triple = "x86_64-pc-linux-gnu"

@ts_sec = internal global i64 0, align 8
@ts_nsec = internal global i32 0, align 4
@ts_tick = internal global i32 1000, align 4

; Function Attrs: null_pointer_is_valid sspstrong uwtable
define hidden void @parse_time(ptr noundef %0, ptr noundef %1, ptr noundef %2) #0 {
  %4 = alloca ptr, align 8
  %5 = alloca ptr, align 8
  %6 = alloca ptr, align 8
  store ptr %0, ptr %4, align 8
  store ptr %1, ptr %5, align 8
  store ptr %2, ptr %6, align 8
  %7 = load ptr, ptr %6, align 8
  %8 = icmp eq ptr %7, null
  br i1 %8, label %14, label %9

9:                                                ; preds = %3
  %10 = load ptr, ptr %4, align 8
  %11 = load ptr, ptr %5, align 8
  %12 = load ptr, ptr %6, align 8
  %13 = call zeroext i1 @_parse_time(ptr noundef %10, ptr noundef %11, ptr noundef %12, ptr noundef @ts_sec, ptr noundef @ts_nsec)
  br i1 %13, label %18, label %14

14:                                               ; preds = %9, %3
  %15 = load i32, ptr @ts_tick, align 4
  %16 = load i32, ptr @ts_nsec, align 4
  %17 = add i32 %16, %15
  store i32 %17, ptr @ts_nsec, align 4
  br label %18

18:                                               ; preds = %14, %9
  ret void
}