; Function Attrs: null_pointer_is_valid sspstrong uwtable
define hidden void @parse_time(ptr noundef %0, ptr noundef %1, ptr noundef %2) local_unnamed_addr #0 {
  %4 = icmp eq ptr %2, null
  br i1 %4, label %7, label %5

5:                                                ; preds = %3
  %6 = tail call fastcc zeroext i1 @_parse_time(ptr noundef %0, ptr noundef %1, ptr noundef %2)
  br i1 %6, label %10, label %7

7:                                                ; preds = %5, %3
  %8 = load i32, ptr @ts_nsec, align 4
  %9 = add i32 %8, 1000
  store i32 %9, ptr @ts_nsec, align 4
  br label %10

10:                                               ; preds = %7, %5
  ret void
}